; Function Attrs: mustprogress uwtable
define noundef range(i32 0, 25) i32 @_Z13tMPI_WaitsomeiPP9tmpi_req_PiS2_P12tmpi_status_(i32 noundef %0, ptr noundef captures(none) %1, ptr noundef captures(none) %2, ptr noundef captures(none) %3, ptr noundef %4) local_unnamed_addr #0 {
  %6 = tail call noundef ptr @_Z23tMPI_Thread_getspecific17tMPI_Thread_key_t(ptr noundef nonnull byval(%struct.tMPI_Thread_key_t) align 8 @id_key)
  %7 = getelementptr inbounds nuw i8, ptr %6, i64 360
  %8 = icmp sgt i32 %0, 0
  br i1 %8, label %.lr.ph.preheader.i, label %.preheader.i

.lr.ph.preheader.i:                               ; preds = %5
  %wide.trip.count.i = zext nneg i32 %0 to i64
  br label %.lr.ph.i

.preheader.i:                                     ; preds = %19, %5
  %.024.lcssa.i = phi ptr [ null, %5 ], [ %.125.i, %19 ]
  %9 = tail call noundef i32 @_Z15tMPI_Test_multiP11tmpi_threadP9tmpi_req_Pi(ptr noundef %6, ptr noundef %.024.lcssa.i, ptr noundef null)
  %.not.us.not.i = icmp eq i32 %9, 0
  br i1 %.not.us.not.i, label %10, label %_ZL19tMPI_Test_multi_reqP11tmpi_threadiPP9tmpi_req_ii.exit

10:                                               ; preds = %.preheader.i
  tail call void @_Z26tMPI_Wait_process_incomingP11tmpi_thread(ptr noundef %6)
  br label %_ZL19tMPI_Test_multi_reqP11tmpi_threadiPP9tmpi_req_ii.exit

.lr.ph.i:                                         ; preds = %19, %.lr.ph.preheader.i
  %indvars.iv.i = phi i64 [ 0, %.lr.ph.preheader.i ], [ %indvars.iv.next.i, %19 ]
  %.02333.i = phi ptr [ null, %.lr.ph.preheader.i ], [ %.1.i, %19 ]
  %.02432.i = phi ptr [ null, %.lr.ph.preheader.i ], [ %.125.i, %19 ]
  %11 = getelementptr inbounds nuw ptr, ptr %1, i64 %indvars.iv.i
  %12 = load ptr, ptr %11, align 8, !tbaa !3
  %.not27.i = icmp eq ptr %12, null
  br i1 %.not27.i, label %19, label %13

13:                                               ; preds = %.lr.ph.i
  %.not28.i = icmp eq ptr %.02432.i, null
  %spec.select.i = select i1 %.not28.i, ptr %12, ptr %.02432.i
  %.not29.i = icmp eq ptr %.02333.i, null
  %14 = getelementptr inbounds nuw i8, ptr %12, i64 56
  br i1 %.not29.i, label %15, label %16

15:                                               ; preds = %13
  tail call void @llvm.memset.p0.i64(ptr noundef nonnull align 8 dereferenceable(16) %14, i8 0, i64 16, i1 false)
  br label %19

16:                                               ; preds = %13
  store ptr null, ptr %14, align 8, !tbaa !8
  %17 = getelementptr inbounds nuw i8, ptr %12, i64 64
  store ptr %.02333.i, ptr %17, align 8, !tbaa !15
  %18 = getelementptr inbounds nuw i8, ptr %.02333.i, i64 56
  store ptr %12, ptr %18, align 8, !tbaa !8
  br label %19

19:                                               ; preds = %16, %15, %.lr.ph.i
  %.125.i = phi ptr [ %spec.select.i, %16 ], [ %spec.select.i, %15 ], [ %.02432.i, %.lr.ph.i ]
  %.1.i = phi ptr [ %12, %16 ], [ %12, %15 ], [ %.02333.i, %.lr.ph.i ]
  %indvars.iv.next.i = add nuw nsw i64 %indvars.iv.i, 1
  %exitcond.not.i = icmp eq i64 %indvars.iv.next.i, %wide.trip.count.i
  br i1 %exitcond.not.i, label %.preheader.i, label %.lr.ph.i, !llvm.loop !22

_ZL19tMPI_Test_multi_reqP11tmpi_threadiPP9tmpi_req_ii.exit: ; preds = %.preheader.i, %10
  store i32 0, ptr %2, align 4, !tbaa !20
  br i1 %8, label %.lr.ph, label %._crit_edge

.lr.ph:                                           ; preds = %_ZL19tMPI_Test_multi_reqP11tmpi_threadiPP9tmpi_req_ii.exit
  %.not31 = icmp eq ptr %4, null
  %wide.trip.count40 = zext nneg i32 %0 to i64
  br i1 %.not31, label %.lr.ph.split.us, label %.lr.ph.split

.lr.ph.split.us:                                  ; preds = %.lr.ph, %34
  %indvars.iv37 = phi i64 [ %indvars.iv.next38, %34 ], [ 0, %.lr.ph ]
  %.02733.us = phi i32 [ %.2.us, %34 ], [ 0, %.lr.ph ]
  %20 = getelementptr inbounds nuw ptr, ptr %1, i64 %indvars.iv37
  %21 = load ptr, ptr %20, align 8, !tbaa !3
  %.not.us = icmp eq ptr %21, null
  br i1 %.not.us, label %34, label %22

22:                                               ; preds = %.lr.ph.split.us
  %23 = load i32, ptr %21, align 8, !tbaa !21
  %.not30.us = icmp eq i32 %23, 0
  br i1 %.not30.us, label %34, label %24

24:                                               ; preds = %22
  %25 = load i32, ptr %2, align 4, !tbaa !20
  %26 = sext i32 %25 to i64
  %27 = getelementptr inbounds i32, ptr %3, i64 %26
  %28 = load i32, ptr %27, align 4, !tbaa !20
  %29 = add nsw i32 %28, 1
  store i32 %29, ptr %27, align 4, !tbaa !20
  %30 = load i32, ptr %2, align 4, !tbaa !20
  %31 = add nsw i32 %30, 1
  store i32 %31, ptr %2, align 4, !tbaa !20
  %32 = getelementptr inbounds nuw i8, ptr %21, i64 36
  %33 = load i32, ptr %32, align 4, !tbaa !19
  %.not32.us = icmp eq i32 %33, 0
  %spec.select.us = select i1 %.not32.us, i32 %.02733.us, i32 24
  tail call void @_Z15tMPI_Return_reqP8req_listP9tmpi_req_(ptr noundef nonnull %7, ptr noundef nonnull %21)
  store ptr null, ptr %20, align 8, !tbaa !3
  br label %34

34:                                               ; preds = %24, %22, %.lr.ph.split.us
  %.2.us = phi i32 [ %spec.select.us, %24 ], [ %.02733.us, %22 ], [ %.02733.us, %.lr.ph.split.us ]
  %indvars.iv.next38 = add nuw nsw i64 %indvars.iv37, 1
  %exitcond41.not = icmp eq i64 %indvars.iv.next38, %wide.trip.count40
  br i1 %exitcond41.not, label %._crit_edge, label %.lr.ph.split.us, !llvm.loop !27

.lr.ph.split:                                     ; preds = %.lr.ph, %51
  %indvars.iv = phi i64 [ %indvars.iv.next, %51 ], [ 0, %.lr.ph ]
  %.02733 = phi i32 [ %.2, %51 ], [ 0, %.lr.ph ]
  %35 = getelementptr inbounds nuw ptr, ptr %1, i64 %indvars.iv
  %36 = load ptr, ptr %35, align 8, !tbaa !3
  %.not = icmp eq ptr %36, null
  br i1 %.not, label %51, label %37

37:                                               ; preds = %.lr.ph.split
  %38 = load i32, ptr %36, align 8, !tbaa !21
  %.not30 = icmp eq i32 %38, 0
  br i1 %.not30, label %51, label %39

39:                                               ; preds = %37
  %40 = load i32, ptr %2, align 4, !tbaa !20
  %41 = sext i32 %40 to i64
  %42 = getelementptr inbounds i32, ptr %3, i64 %41
  %43 = load i32, ptr %42, align 4, !tbaa !20
  %44 = add nsw i32 %43, 1
  store i32 %44, ptr %42, align 4, !tbaa !20
  %45 = load i32, ptr %2, align 4, !tbaa !20
  %46 = add nsw i32 %45, 1
  store i32 %46, ptr %2, align 4, !tbaa !20
  %47 = getelementptr inbounds nuw %struct.tmpi_status_, ptr %4, i64 %indvars.iv
  tail call void @_Z15tMPI_Set_statusP9tmpi_req_P12tmpi_status_(ptr noundef nonnull %36, ptr noundef nonnull %47)
  %48 = load ptr, ptr %35, align 8, !tbaa !3
  %49 = getelementptr inbounds nuw i8, ptr %48, i64 36
  %50 = load i32, ptr %49, align 4, !tbaa !19
  %.not32 = icmp eq i32 %50, 0
  %spec.select = select i1 %.not32, i32 %.02733, i32 24
  tail call void @_Z15tMPI_Return_reqP8req_listP9tmpi_req_(ptr noundef nonnull %7, ptr noundef %48)
  store ptr null, ptr %35, align 8, !tbaa !3
  br label %51

51:                                               ; preds = %.lr.ph.split, %37, %39
  %.2 = phi i32 [ %spec.select, %39 ], [ %.02733, %37 ], [ %.02733, %.lr.ph.split ]
  %indvars.iv.next = add nuw nsw i64 %indvars.iv, 1
  %exitcond.not = icmp eq i64 %indvars.iv.next, %wide.trip.count40
  br i1 %exitcond.not, label %._crit_edge, label %.lr.ph.split, !llvm.loop !27

._crit_edge:                                      ; preds = %51, %34, %_ZL19tMPI_Test_multi_reqP11tmpi_threadiPP9tmpi_req_ii.exit
  %.027.lcssa = phi i32 [ 0, %_ZL19tMPI_Test_multi_reqP11tmpi_threadiPP9tmpi_req_ii.exit ], [ %.2.us, %34 ], [ %.2, %51 ]
  ret i32 %.027.lcssa
}